; Function Attrs: mustprogress uwtable
define noundef i32 @_ZN6icu_7517RuleBasedCollator14setVariableTopERKNS_13UnicodeStringER10UErrorCode(ptr nocapture noundef nonnull align 8 dereferenceable(272) %this, ptr noundef nonnull align 8 dereferenceable(64) %varTop, ptr noundef nonnull align 4 dereferenceable(4) %errorCode) unnamed_addr #1 align 2 {
entry:
  %fUnion.i = getelementptr inbounds i8, ptr %varTop, i64 8
  %0 = load i16, ptr %fUnion.i, align 8
  %conv1.i = zext i16 %0 to i32
  %and.i = and i32 %conv1.i, 17
  %tobool.not.i = icmp eq i32 %and.i, 0
  br i1 %tobool.not.i, label %if.else.i, label %_ZNK6icu_7513UnicodeString9getBufferEv.exit

if.else.i:                                        ; preds = %entry
  %and5.i = and i32 %conv1.i, 2
  %tobool6.not.i = icmp eq i32 %and5.i, 0
  br i1 %tobool6.not.i, label %if.else9.i, label %if.then7.i

if.then7.i:                                       ; preds = %if.else.i
  %fBuffer.i = getelementptr inbounds i8, ptr %varTop, i64 10
  br label %_ZNK6icu_7513UnicodeString9getBufferEv.exit

if.else9.i:                                       ; preds = %if.else.i
  %fArray.i = getelementptr inbounds i8, ptr %varTop, i64 24
  %1 = load ptr, ptr %fArray.i, align 8
  br label %_ZNK6icu_7513UnicodeString9getBufferEv.exit

_ZNK6icu_7513UnicodeString9getBufferEv.exit:      ; preds = %entry, %if.then7.i, %if.else9.i
  %retval.0.i = phi ptr [ %fBuffer.i, %if.then7.i ], [ %1, %if.else9.i ], [ null, %entry ]
  %cmp.i.i = icmp slt i16 %0, 0
  %2 = ashr i16 %0, 5
  %shr.i.i = sext i16 %2 to i32
  %fLength.i = getelementptr inbounds i8, ptr %varTop, i64 12
  %3 = load i32, ptr %fLength.i, align 4
  %cond.i = select i1 %cmp.i.i, i32 %3, i32 %shr.i.i
  %call3 = tail call noundef i32 @_ZN6icu_7517RuleBasedCollator14setVariableTopEPKDsiR10UErrorCode(ptr noundef nonnull align 8 dereferenceable(272) %this, ptr noundef %retval.0.i, i32 noundef %cond.i, ptr noundef nonnull align 4 dereferenceable(4) %errorCode)
  ret i32 %call3
}